target datalayout = "e-m:e-p270:32:32-p271:32:32-p272:64:64-i64:64-i128:128-f80:128-n8:16:32:64-S128"
target triple = "x86_64-unknown-linux-gnu"

%"class.icu_75::UObject" = type { ptr }
%"class.icu_75::TZGNCore" = type <{ ptr, %"class.icu_75::Locale", ptr, ptr, ptr, %"class.icu_75::SimpleFormatter", %"class.icu_75::SimpleFormatter", ptr, %"class.icu_75::ZNStringPool", %"class.icu_75::TextTrieMap", i8, [4 x i8], [3 x i8] }>
%"class.icu_75::Locale" = type <{ %"class.icu_75::UObject", [12 x i8], [6 x i8], [4 x i8], [2 x i8], i32, [4 x i8], ptr, [157 x i8], [3 x i8], ptr, i8, [7 x i8] }>
%"class.icu_75::SimpleFormatter" = type { [8 x i8], %"class.icu_75::UnicodeString" }
%"class.icu_75::UnicodeString" = type { %"class.icu_75::Replaceable", %"union.icu_75::UnicodeString::StackBufferOrFields" }
%"class.icu_75::Replaceable" = type { %"class.icu_75::UObject" }
%"union.icu_75::UnicodeString::StackBufferOrFields" = type { %struct.anon.0, [32 x i8] }
%struct.anon.0 = type { i16, i32, i32, ptr }
%"class.icu_75::ZNStringPool" = type { ptr, ptr }
%"class.icu_75::TextTrieMap" = type { ptr, i8, ptr, i32, i32, ptr, i8, ptr }

@_ZTVN6icu_758TZGNCoreE = unnamed_addr constant { [4 x ptr] } { [4 x ptr] [ptr null, ptr @_ZTIN6icu_758TZGNCoreE, ptr @_ZN6icu_758TZGNCoreD1Ev, ptr @_ZN6icu_758TZGNCoreD0Ev] }, align 8

; Function Attrs: mustprogress uwtable
define void @_ZN6icu_758TZGNCore7cleanupEv(ptr noundef nonnull align 8 dereferenceable(485) %this) #1 align 2 {
entry:
  %this.addr = alloca ptr, align 8
  store ptr %this, ptr %this.addr, align 8
  %this1 = load ptr, ptr %this.addr, align 8
  %fLocaleDisplayNames = getelementptr inbounds %"class.icu_75::TZGNCore", ptr %this1, i32 0, i32 7
  %0 = load ptr, ptr %fLocaleDisplayNames, align 8
  %cmp = icmp ne ptr %0, null
  br i1 %cmp, label %if.then, label %if.end

if.then:                                          ; preds = %entry
  %fLocaleDisplayNames2 = getelementptr inbounds %"class.icu_75::TZGNCore", ptr %this1, i32 0, i32 7
  %1 = load ptr, ptr %fLocaleDisplayNames2, align 8
  %isnull = icmp eq ptr %1, null
  br i1 %isnull, label %delete.end, label %delete.notnull

delete.notnull:                                   ; preds = %if.then
  %vtable = load ptr, ptr %1, align 8
  %vfn = getelementptr inbounds ptr, ptr %vtable, i64 1
  %2 = load ptr, ptr %vfn, align 8
  call void %2(ptr noundef nonnull align 8 dereferenceable(8) %1) #9
  br label %delete.end

delete.end:                                       ; preds = %delete.notnull, %if.then
  br label %if.end

if.end:                                           ; preds = %delete.end, %entry
  %fTimeZoneNames = getelementptr inbounds %"class.icu_75::TZGNCore", ptr %this1, i32 0, i32 2
  %3 = load ptr, ptr %fTimeZoneNames, align 8
  %cmp3 = icmp ne ptr %3, null
  br i1 %cmp3, label %if.then4, label %if.end11

if.then4:                                         ; preds = %if.end
  %fTimeZoneNames5 = getelementptr inbounds %"class.icu_75::TZGNCore", ptr %this1, i32 0, i32 2
  %4 = load ptr, ptr %fTimeZoneNames5, align 8
  %isnull6 = icmp eq ptr %4, null
  br i1 %isnull6, label %delete.end10, label %delete.notnull7

delete.notnull7:                                  ; preds = %if.then4
  %vtable8 = load ptr, ptr %4, align 8
  %vfn9 = getelementptr inbounds ptr, ptr %vtable8, i64 1
  %5 = load ptr, ptr %vfn9, align 8
  call void %5(ptr noundef nonnull align 8 dereferenceable(8) %4) #9
  br label %delete.end10

delete.end10:                                     ; preds = %delete.notnull7, %if.then4
  br label %if.end11

if.end11:                                         ; preds = %delete.end10, %if.end
  %fLocationNamesMap = getelementptr inbounds %"class.icu_75::TZGNCore", ptr %this1, i32 0, i32 3
  %6 = load ptr, ptr %fLocationNamesMap, align 8
  call void @uhash_close_75(ptr noundef %6)
  %fPartialLocationNamesMap = getelementptr inbounds %"class.icu_75::TZGNCore", ptr %this1, i32 0, i32 4
  %7 = load ptr, ptr %fPartialLocationNamesMap, align 8
  call void @uhash_close_75(ptr noundef %7)
  ret void
}

; Function Attrs: mustprogress nounwind uwtable
define void @_ZN6icu_758TZGNCoreD2Ev(ptr noundef nonnull align 8 dereferenceable(485) %this) unnamed_addr #0 align 2 personality ptr @__gxx_personality_v0 {
entry:
  %this.addr = alloca ptr, align 8
  store ptr %this, ptr %this.addr, align 8
  %this1 = load ptr, ptr %this.addr, align 8
  store ptr getelementptr inbounds ({ [4 x ptr] }, ptr @_ZTVN6icu_758TZGNCoreE, i32 0, i32 0, i32 2), ptr %this1, align 8
  invoke void @_ZN6icu_758TZGNCore7cleanupEv(ptr noundef nonnull align 8 dereferenceable(485) %this1)
          to label %invoke.cont unwind label %terminate.lpad

invoke.cont:                                      ; preds = %entry
  %fGNamesTrie = getelementptr inbounds %"class.icu_75::TZGNCore", ptr %this1, i32 0, i32 9
  call void @_ZN6icu_7511TextTrieMapD1Ev(ptr noundef nonnull align 8 dereferenceable(56) %fGNamesTrie) #9
  %fStringPool = getelementptr inbounds %"class.icu_75::TZGNCore", ptr %this1, i32 0, i32 8
  call void @_ZN6icu_7512ZNStringPoolD1Ev(ptr noundef nonnull align 8 dereferenceable(16) %fStringPool) #9
  %fFallbackFormat = getelementptr inbounds %"class.icu_75::TZGNCore", ptr %this1, i32 0, i32 6
  call void @_ZN6icu_7515SimpleFormatterD1Ev(ptr noundef nonnull align 8 dereferenceable(72) %fFallbackFormat) #9
  %fRegionFormat = getelementptr inbounds %"class.icu_75::TZGNCore", ptr %this1, i32 0, i32 5
  call void @_ZN6icu_7515SimpleFormatterD1Ev(ptr noundef nonnull align 8 dereferenceable(72) %fRegionFormat) #9
  %fLocale = getelementptr inbounds %"class.icu_75::TZGNCore", ptr %this1, i32 0, i32 1
  call void @_ZN6icu_756LocaleD1Ev(ptr noundef nonnull align 8 dereferenceable(217) %fLocale) #9
  ret void

terminate.lpad:                                   ; preds = %entry
  %0 = landingpad { ptr, i32 }
          catch ptr null
  %1 = extractvalue { ptr, i32 } %0, 0
  call void @__clang_call_terminate(ptr %1) #11
  unreachable
}