; Function Attrs: mustprogress nounwind uwtable
define void @_ZN6icu_758TZGNCoreD2Ev(ptr noundef nonnull align 8 dereferenceable(485) %this) unnamed_addr #0 align 2 personality ptr @__gxx_personality_v0 {
entry:
  store ptr getelementptr inbounds ({ [4 x ptr] }, ptr @_ZTVN6icu_758TZGNCoreE, i64 0, i32 0, i64 2), ptr %this, align 8
  %fLocaleDisplayNames.i = getelementptr inbounds i8, ptr %this, i64 400
  %0 = load ptr, ptr %fLocaleDisplayNames.i, align 8
  %cmp.not.i = icmp eq ptr %0, null
  br i1 %cmp.not.i, label %if.end.i, label %delete.notnull.i

delete.notnull.i:                                 ; preds = %entry
  %vtable.i = load ptr, ptr %0, align 8
  %vfn.i = getelementptr inbounds i8, ptr %vtable.i, i64 8
  %1 = load ptr, ptr %vfn.i, align 8
  tail call void %1(ptr noundef nonnull align 8 dereferenceable(8) %0) #17
  br label %if.end.i

if.end.i:                                         ; preds = %delete.notnull.i, %entry
  %fTimeZoneNames.i = getelementptr inbounds i8, ptr %this, i64 232
  %2 = load ptr, ptr %fTimeZoneNames.i, align 8
  %cmp3.not.i = icmp eq ptr %2, null
  br i1 %cmp3.not.i, label %if.end11.i, label %delete.notnull7.i

delete.notnull7.i:                                ; preds = %if.end.i
  %vtable8.i = load ptr, ptr %2, align 8
  %vfn9.i = getelementptr inbounds i8, ptr %vtable8.i, i64 8
  %3 = load ptr, ptr %vfn9.i, align 8
  tail call void %3(ptr noundef nonnull align 8 dereferenceable(8) %2) #17
  br label %if.end11.i

if.end11.i:                                       ; preds = %delete.notnull7.i, %if.end.i
  %fLocationNamesMap.i = getelementptr inbounds i8, ptr %this, i64 240
  %4 = load ptr, ptr %fLocationNamesMap.i, align 8
  invoke void @uhash_close_75(ptr noundef %4)
          to label %.noexc unwind label %terminate.lpad

.noexc:                                           ; preds = %if.end11.i
  %fPartialLocationNamesMap.i = getelementptr inbounds i8, ptr %this, i64 248
  %5 = load ptr, ptr %fPartialLocationNamesMap.i, align 8
  invoke void @uhash_close_75(ptr noundef %5)
          to label %invoke.cont unwind label %terminate.lpad

invoke.cont:                                      ; preds = %.noexc
  %fGNamesTrie = getelementptr inbounds i8, ptr %this, i64 424
  tail call void @_ZN6icu_7511TextTrieMapD1Ev(ptr noundef nonnull align 8 dereferenceable(56) %fGNamesTrie) #17
  %fStringPool = getelementptr inbounds i8, ptr %this, i64 408
  tail call void @_ZN6icu_7512ZNStringPoolD1Ev(ptr noundef nonnull align 8 dereferenceable(16) %fStringPool) #17
  %fFallbackFormat = getelementptr inbounds i8, ptr %this, i64 328
  tail call void @_ZN6icu_7515SimpleFormatterD1Ev(ptr noundef nonnull align 8 dereferenceable(72) %fFallbackFormat) #17
  %fRegionFormat = getelementptr inbounds i8, ptr %this, i64 256
  tail call void @_ZN6icu_7515SimpleFormatterD1Ev(ptr noundef nonnull align 8 dereferenceable(72) %fRegionFormat) #17
  %fLocale = getelementptr inbounds i8, ptr %this, i64 8
  tail call void @_ZN6icu_756LocaleD1Ev(ptr noundef nonnull align 8 dereferenceable(217) %fLocale) #17
  ret void

terminate.lpad:                                   ; preds = %.noexc, %if.end11.i
  %6 = landingpad { ptr, i32 }
          catch ptr null
  %7 = extractvalue { ptr, i32 } %6, 0
  tail call void @__clang_call_terminate(ptr %7) #19
  unreachable
}